Certificate:
    Data:
        Version: 1 (0x0)
        Serial Number:
            cb:f5:0d:cd:48:75:df:5e
    Signature Algorithm: sha256WithRSAEncryption
        Issuer: C=US, ST=Montana, L=Bozeman, O=Sawtooth, OU=Consulting, CN=www.wolfssl.com/emailAddress=info@wolfssl.com
        Validity
            Not Before: Jun 12 17:30:11 2026 GMT
            Not After : Jun  9 17:30:11 2036 GMT
        Subject: C=US, ST=Montana, L=Bozeman, O=Sawtooth, OU=Consulting, CN=www.wolfssl.com/emailAddress=info@wolfssl.com
        Subject Public Key Info:
            Public Key Algorithm: rsaEncryption
                RSA Public-Key: (2048 bit)
                Modulus:
                    00:ce:6b:43:26:a4:36:e0:da:0b:ee:4b:84:5f:72:
                    df:fe:22:76:34:44:6c:c9:45:8c:8b:be:8b:f2:af:
                    67:aa:74:25:48:77:e6:44:6c:80:69:9e:ae:d2:ec:
                    5c:c3:e3:f2:51:4a:6c:c9:c2:c9:cb:5e:6d:74:d9:
                    28:08:e9:6d:2e:6e:5b:7b:60:b8:17:cf:90:fc:dc:
                    0b:fc:8f:e8:e9:4a:6f:e8:28:7d:50:d4:f3:a1:ea:
                    29:62:92:15:82:f4:3b:74:88:6d:6f:ce:a5:63:bf:
                    13:fc:34:03:62:ab:c7:24:6e:4e:62:69:88:6a:7f:
                    af:89:78:2c:64:88:0a:6e:59:b7:a1:43:43:ce:f3:
                    db:7a:97:af:f2:15:d1:e2:59:ea:65:8e:94:14:92:
                    16:45:d6:d0:11:c1:5d:b9:04:00:96:6b:f3:cc:e6:
                    bb:ab:37:f7:d8:8d:29:a1:b0:d0:cc:dd:60:50:90:
                    1d:f1:8d:b0:c9:01:6a:49:d2:b0:df:79:37:3c:b0:
                    c5:a0:4b:54:36:a0:b0:aa:c4:a1:09:66:6a:3a:07:
                    a6:42:d4:83:b1:9a:30:e2:8d:fd:41:01:86:2c:6a:
                    bf:41:5d:d6:37:20:34:9d:2b:be:de:0f:d7:d9:4e:
                    fe:e0:97:53:96:02:62:f3:87:55:de:47:bc:83:26:
                    dd:29
                Exponent: 65537 (0x10001)
    Signature Algorithm: sha256WithRSAEncryption
         57:a9:91:4b:3c:fe:1e:b3:58:58:07:82:7f:a8:33:9b:e6:2f:
         f5:e6:de:d0:72:00:1a:04:6f:15:cc:01:8b:10:1f:19:e3:d2:
         8e:d9:27:48:6c:2d:ef:c2:1e:a3:97:fe:3f:bd:cf:97:5a:1b:
         85:19:20:63:e6:2a:85:6d:08:cb:b8:38:c1:38:3f:c9:88:90:
         e2:48:f4:c4:22:d2:3f:78:63:f0:a8:1b:26:08:2b:23:82:2c:
         f0:e9:51:21:65:58:87:ad:73:03:41:95:67:ff:e9:b9:3d:93:
         19:49:ff:39:6a:75:c6:74:3b:e9:51:d0:07:28:14:30:f9:1a:
         b2:23:63:b6:25:64:f0:3a:62:bf:84:40:65:ea:38:6c:f6:86:
         13:fb:94:98:ac:03:37:6e:e5:75:28:65:20:69:b2:f9:9a:2c:
         e6:af:ad:74:78:d8:5f:f4:d2:6c:4d:32:6c:3a:ab:65:6b:d7:
         3c:f9:fb:6a:18:fb:c0:88:e4:40:0b:38:cd:d4:5a:1c:b0:bb:
         18:3a:6a:18:20:0f:27:0e:ea:38:13:50:2c:f4:3a:00:dc:e9:
         1a:d5:52:21:cb:3c:7c:e1:25:e8:d5:e1:b4:2e:79:2c:45:8a:
         cb:63:90:60:57:96:a0:17:6f:d8:cf:05:76:b1:51:12:86:a3:
         58:36:00:5c
-----BEGIN CERTIFICATE-----
MIIDpjCCAo4CCQDL9Q3NSHXfXjANBgkqhkiG9w0BAQsFADCBlDELMAkGA1UEBhMC
VVMxEDAOBgNVBAgMB01vbnRhbmExEDAOBgNVBAcMB0JvemVtYW4xETAPBgNVBAoM
CFNhd3Rvb3RoMRMwEQYDVQQLDApDb25zdWx0aW5nMRgwFgYDVQQDDA93d3cud29s
ZnNzbC5jb20xHzAdBgkqhkiG9w0BCQEWEGluZm9Ad29sZnNzbC5jb20wHhcNMjYw
NjEyMTczMDExWhcNMzYwNjA5MTczMDExWjCBlDELMAkGA1UEBhMCVVMxEDAOBgNV
BAgMB01vbnRhbmExEDAOBgNVBAcMB0JvemVtYW4xETAPBgNVBAoMCFNhd3Rvb3Ro
MRMwEQYDVQQLDApDb25zdWx0aW5nMRgwFgYDVQQDDA93d3cud29sZnNzbC5jb20x
HzAdBgkqhkiG9w0BCQEWEGluZm9Ad29sZnNzbC5jb20wggEiMA0GCSqGSIb3DQEB
AQUAA4IBDwAwggEKAoIBAQDOa0MmpDbg2gvuS4Rfct/+InY0RGzJRYyLvovyr2eq
dCVId+ZEbIBpnq7S7FzD4/JRSmzJwsnLXm102SgI6W0ublt7YLgXz5D83Av8j+jp
Sm/oKH1Q1POh6ilikhWC9Dt0iG1vzqVjvxP8NANiq8ckbk5iaYhqf6+JeCxkiApu
WbehQ0PO89t6l6/yFdHiWepljpQUkhZF1tARwV25BACWa/PM5rurN/fYjSmhsNDM
3WBQkB3xjbDJAWpJ0rDfeTc8sMWgS1Q2oLCqxKEJZmo6B6ZC1IOxmjDijf1BAYYs
ar9BXdY3IDSdK77eD9fZTv7gl1OWAmLzh1XeR7yDJt0pAgMBAAEwDQYJKoZIhvcN
AQELBQADggEBAFepkUs8/h6zWFgHgn+oM5vmL/Xm3tByABoEbxXMAYsQHxnj0o7Z
J0hsLe/CHqOX/j+9z5daG4UZIGPmKoVtCMu4OME4P8mIkOJI9MQi0j94Y/CoGyYI
KyOCLPDpUSFlWIetcwNBlWf/6bk9kxlJ/zlqdcZ0O+lR0AcoFDD5GrIjY7YlZPA6
Yr+EQGXqOGz2hhP7lJisAzdu5XUoZSBpsvmaLOavrXR42F/00mxNMmw6q2Vr1zz5
+2oY+8CI5EALOM3UWhywuxg6ahggDycO6jgTUCz0OgDc6RrVUiHLPHzhJejV4bQu
eSxFistjkGBXlqAXb9jPBXaxURKGo1g2AFw=
-----END CERTIFICATE-----
