Certificate:
    Data:
        Version: 3 (0x2)
        Serial Number:
            b8:a8:ef:9d:53:16:38:ab
    Signature Algorithm: sha256WithRSAEncryption
        Issuer: C=US, ST=Montana, L=Bozeman, O=Sawtooth, OU=Consulting, CN=www.wolfssl.com/emailAddress=info@wolfssl.com
        Validity
            Not Before: Jun 15 16:36:44 2026 GMT
            Not After : Jun 12 16:36:44 2036 GMT
        Subject: C=US, ST=Montana, L=Bozeman, O=Sawtooth, OU=Consulting, CN=www.wolfssl.com/emailAddress=info@wolfssl.com
        Subject Public Key Info:
            Public Key Algorithm: rsaEncryption
                RSA Public-Key: (2048 bit)
                Modulus:
                    00:bd:af:93:11:5d:d0:f7:38:60:11:7f:4a:57:bc:
                    b6:9a:29:f4:7e:c8:8d:aa:1c:7c:c3:96:93:9b:38:
                    1a:e5:04:c0:5d:ba:cd:65:d3:79:c5:64:0b:9d:e8:
                    35:94:1f:0e:d8:96:51:99:56:76:86:ef:63:85:ea:
                    c1:84:9b:b7:83:1a:00:6b:6c:1b:c3:7e:1c:ce:45:
                    28:7e:81:64:cd:4c:c3:cc:94:50:c9:5c:54:c8:8f:
                    7b:7d:bf:55:0a:7e:33:45:19:83:cb:e3:53:9c:55:
                    4a:03:ae:42:fe:90:73:0c:36:89:e4:82:bd:c4:ae:
                    af:d4:56:70:ce:f7:01:29:96:02:ff:68:72:52:57:
                    21:3d:4b:52:36:bb:99:80:02:95:30:16:e9:d4:2f:
                    6f:89:63:e7:db:d9:ad:7f:02:2d:8a:8f:f6:d3:32:
                    69:38:67:89:c6:0d:4d:f1:e2:e0:c9:ef:10:96:ae:
                    ae:b2:46:3c:89:39:79:37:85:5f:0f:52:83:f5:cc:
                    05:17:67:60:52:64:1c:99:96:4d:6f:f9:17:c6:b9:
                    a5:bc:6e:8f:a6:65:16:c0:db:0e:7b:62:c5:ca:cc:
                    49:86:56:38:4b:b7:aa:fe:ea:45:36:09:20:5e:e9:
                    52:7a:52:a0:4b:cd:19:8c:ef:c0:3b:2c:98:bb:75:
                    bb:ad
                Exponent: 65537 (0x10001)
        X509v3 extensions:
            X509v3 Basic Constraints: critical
                CA:TRUE
            X509v3 Subject Key Identifier: 
                39:6C:89:67:B2:33:EE:AF:67:61:74:DE:9A:C2:CF:DA:4F:6D:CD:40
            X509v3 Authority Key Identifier: 
                keyid:39:6C:89:67:B2:33:EE:AF:67:61:74:DE:9A:C2:CF:DA:4F:6D:CD:40
                DirName:/C=US/ST=Montana/L=Bozeman/O=Sawtooth/OU=Consulting/CN=www.wolfssl.com/emailAddress=info@wolfssl.com
                serial:B8:A8:EF:9D:53:16:38:AB

            X509v3 Key Usage: critical
                Certificate Sign, CRL Sign
            X509v3 Subject Alternative Name: 
                DNS:example.com, IP Address:127.0.0.1
    Signature Algorithm: sha256WithRSAEncryption
         4b:52:2f:78:9d:36:de:31:d9:f9:17:25:3a:f2:b3:d5:7d:f9:
         36:87:0d:64:59:3c:21:cd:5d:58:b1:38:86:37:fd:f2:f9:77:
         d7:45:f9:aa:db:81:0d:a9:62:38:14:6c:d3:26:2f:59:ed:8a:
         42:0d:ba:55:e2:93:25:b3:b9:c2:36:61:4c:de:e2:53:f3:a6:
         d4:ba:d4:ca:b1:40:86:6b:60:55:8e:89:50:86:92:ca:62:62:
         36:a4:0b:e2:ef:ca:31:76:cd:dd:9f:4d:20:a6:4b:28:96:36:
         fa:d5:b1:80:be:9e:df:81:2f:cf:52:98:0b:63:f9:de:fa:ea:
         41:bf:5e:43:0b:5e:55:15:a5:72:07:ab:49:c6:54:fb:c7:48:
         ba:a4:31:fe:fa:e1:c7:dd:0c:c2:e8:78:10:04:a6:bd:fe:88:
         00:18:5a:d7:d4:a4:58:f8:c5:97:03:16:dc:9c:d1:ba:d1:94:
         61:87:b3:5e:45:31:40:09:21:71:ce:e9:94:fc:53:29:78:78:
         a6:c6:a1:be:3e:55:6f:8e:7c:cd:8f:3f:1a:d8:d3:ac:24:57:
         34:51:2a:7d:da:a6:28:bb:e3:75:0d:8f:e3:e8:b5:32:4e:db:
         0e:c9:e3:62:5c:fd:43:2d:08:7f:25:73:83:4e:a6:fd:76:a3:
         51:d9:16:2c
-----BEGIN CERTIFICATE-----
MIIE3TCCA8WgAwIBAgIJALio751TFjirMA0GCSqGSIb3DQEBCwUAMIGUMQswCQYD
VQQGEwJVUzEQMA4GA1UECAwHTW9udGFuYTEQMA4GA1UEBwwHQm96ZW1hbjERMA8G
A1UECgwIU2F3dG9vdGgxEzARBgNVBAsMCkNvbnN1bHRpbmcxGDAWBgNVBAMMD3d3
dy53b2xmc3NsLmNvbTEfMB0GCSqGSIb3DQEJARYQaW5mb0B3b2xmc3NsLmNvbTAe
Fw0yNjA2MTUxNjM2NDRaFw0zNjA2MTIxNjM2NDRaMIGUMQswCQYDVQQGEwJVUzEQ
MA4GA1UECAwHTW9udGFuYTEQMA4GA1UEBwwHQm96ZW1hbjERMA8GA1UECgwIU2F3
dG9vdGgxEzARBgNVBAsMCkNvbnN1bHRpbmcxGDAWBgNVBAMMD3d3dy53b2xmc3Ns
LmNvbTEfMB0GCSqGSIb3DQEJARYQaW5mb0B3b2xmc3NsLmNvbTCCASIwDQYJKoZI
hvcNAQEBBQADggEPADCCAQoCggEBAL2vkxFd0Pc4YBF/Sle8tpop9H7IjaocfMOW
k5s4GuUEwF26zWXTecVkC53oNZQfDtiWUZlWdobvY4XqwYSbt4MaAGtsG8N+HM5F
KH6BZM1Mw8yUUMlcVMiPe32/VQp+M0UZg8vjU5xVSgOuQv6Qcww2ieSCvcSur9RW
cM73ASmWAv9oclJXIT1LUja7mYAClTAW6dQvb4lj59vZrX8CLYqP9tMyaThnicYN
TfHi4MnvEJaurrJGPIk5eTeFXw9Sg/XMBRdnYFJkHJmWTW/5F8a5pbxuj6ZlFsDb
DntixcrMSYZWOEu3qv7qRTYJIF7pUnpSoEvNGYzvwDssmLt1u60CAwEAAaOCAS4w
ggEqMA8GA1UdEwEB/wQFMAMBAf8wHQYDVR0OBBYEFDlsiWeyM+6vZ2F03prCz9pP
bc1AMIHJBgNVHSMEgcEwgb6AFDlsiWeyM+6vZ2F03prCz9pPbc1AoYGapIGXMIGU
MQswCQYDVQQGEwJVUzEQMA4GA1UECAwHTW9udGFuYTEQMA4GA1UEBwwHQm96ZW1h
bjERMA8GA1UECgwIU2F3dG9vdGgxEzARBgNVBAsMCkNvbnN1bHRpbmcxGDAWBgNV
BAMMD3d3dy53b2xmc3NsLmNvbTEfMB0GCSqGSIb3DQEJARYQaW5mb0B3b2xmc3Ns
LmNvbYIJALio751TFjirMA4GA1UdDwEB/wQEAwIBBjAcBgNVHREEFTATggtleGFt
cGxlLmNvbYcEfwAAATANBgkqhkiG9w0BAQsFAAOCAQEAS1IveJ023jHZ+RclOvKz
1X35NocNZFk8Ic1dWLE4hjf98vl310X5qtuBDaliOBRs0yYvWe2KQg26VeKTJbO5
wjZhTN7iU/Om1LrUyrFAhmtgVY6JUIaSymJiNqQL4u/KMXbN3Z9NIKZLKJY2+tWx
gL6e34Evz1KYC2P53vrqQb9eQwteVRWlcgerScZU+8dIuqQx/vrhx90Mwuh4EASm
vf6IABha19SkWPjFlwMW3JzRutGUYYezXkUxQAkhcc7plPxTKXh4psahvj5Vb458
zY8/GtjTrCRXNFEqfdqmKLvjdQ2P4+i1Mk7bDsnjYlz9Qy0IfyVzg06m/XajUdkW
LA==
-----END CERTIFICATE-----
