Certificate:
    Data:
        Version: 3 (0x2)
        Serial Number:
            fb:42:38:d1:2f:26:06:bd
    Signature Algorithm: sha256WithRSAEncryption
        Issuer: C=US, ST=Montana, L=Bozeman, O=Sawtooth, OU=Consulting, CN=www.wolfssl.com/emailAddress=info@wolfssl.com
        Validity
            Not Before: Jun 15 16:36:44 2026 GMT
            Not After : Jun 12 16:36:44 2036 GMT
        Subject: C=US, ST=Montana, L=Bozeman, O=wolfSSL, OU=Support, CN=www.wolfssl.com/emailAddress=info@wolfssl.com
        Subject Public Key Info:
            Public Key Algorithm: rsaEncryption
                RSA Public-Key: (2048 bit)
                Modulus:
                    00:d7:6c:bd:f2:d0:bc:4f:ca:5b:57:aa:d2:e9:d3:
                    c0:2f:9f:b7:2c:39:15:cf:21:66:4b:d8:c3:7d:f9:
                    94:46:0e:0c:73:e4:da:64:cf:d2:5d:25:6c:dc:9a:
                    0b:39:36:7f:fe:31:1e:1b:77:57:66:e1:ed:a4:ac:
                    91:5c:99:4a:b9:9e:77:1a:a9:e0:93:f8:c8:00:02:
                    20:d0:1f:35:61:66:60:4b:20:9c:11:e4:1e:e8:ee:
                    1e:3a:ef:84:ae:f4:bd:a8:97:1d:72:37:0e:c1:95:
                    86:f4:fc:35:d7:fe:f1:5a:05:45:bf:12:37:ca:cb:
                    0a:4a:94:cf:1d:9b:61:45:75:2f:19:83:23:01:ff:
                    c7:74:d6:df:51:d0:98:30:bc:6d:36:14:e9:15:64:
                    a2:f2:68:6a:ab:4c:b7:e5:7e:9c:64:1f:36:96:07:
                    e9:d0:2c:29:fc:eb:b2:7a:d1:5c:65:6e:26:1f:11:
                    2c:97:22:ab:04:13:cd:9b:62:52:3e:de:c9:ff:03:
                    6f:97:f7:7e:9e:b7:99:9b:78:30:3c:1a:9c:e4:ac:
                    e3:a9:94:78:30:bd:b6:a4:9a:cf:57:69:7f:30:b9:
                    f4:d0:0f:26:c1:bc:8d:82:75:cb:1a:ad:9f:c2:14:
                    10:fb:49:af:78:b5:1b:f6:d0:72:83:10:b0:52:d5:
                    e8:43
                Exponent: 65537 (0x10001)
        X509v3 extensions:
            X509v3 Basic Constraints: 
                CA:FALSE
            X509v3 Subject Key Identifier: 
                A5:12:A1:7B:37:AA:D3:17:1F:BD:DD:CB:BC:D5:64:14:82:E5:3C:43
            X509v3 Authority Key Identifier: 
                keyid:39:6C:89:67:B2:33:EE:AF:67:61:74:DE:9A:C2:CF:DA:4F:6D:CD:40

            X509v3 Key Usage: critical
                Digital Signature, Key Encipherment
            X509v3 Extended Key Usage: 
                TLS Web Server Authentication, TLS Web Client Authentication
            X509v3 Subject Alternative Name: 
                DNS:localhost, DNS:example.com, IP Address:127.0.0.1
    Signature Algorithm: sha256WithRSAEncryption
         3f:31:6e:0f:da:fb:6e:01:80:61:f0:d9:90:ed:85:c2:12:f0:
         50:ae:5f:31:59:8f:36:37:f0:af:d8:02:4a:90:36:b5:c6:87:
         96:cf:5c:ba:e6:7a:f0:46:1a:eb:c2:0a:f2:50:11:67:d9:4a:
         55:98:04:41:9d:14:48:87:83:bc:9c:1b:34:4c:55:ff:75:d6:
         ba:ce:6f:25:25:1f:b7:25:92:28:89:94:23:c4:62:23:6f:77:
         28:8c:59:4b:69:7c:5d:9b:98:35:b2:4d:5d:9e:d5:bc:3a:eb:
         8c:cf:81:11:5e:e3:8a:5d:c5:c8:b8:08:0a:99:75:01:e2:53:
         0c:b9:77:16:37:6b:01:dd:57:77:a5:b2:f6:a6:03:6d:73:85:
         ca:54:88:4b:ae:7f:86:70:a1:c1:30:fe:b7:9a:a7:27:51:13:
         f1:84:e3:2d:6c:54:ac:5f:6a:e0:e9:fc:89:59:43:e1:19:48:
         72:7a:94:5e:4f:5c:ff:ac:1c:86:97:f7:66:e6:e1:e4:8d:8b:
         7d:43:4e:ee:83:34:bc:7a:ef:c1:88:36:ad:e3:48:ae:8a:f7:
         a8:64:63:90:f1:71:d4:06:93:c8:0b:24:aa:68:5f:17:6a:26:
         33:d3:48:e6:8d:e8:4d:21:fd:d7:db:68:11:11:ae:6b:a7:93:
         66:e2:ef:c9
-----BEGIN CERTIFICATE-----
MIIEUDCCAzigAwIBAgIJAPtCONEvJga9MA0GCSqGSIb3DQEBCwUAMIGUMQswCQYD
VQQGEwJVUzEQMA4GA1UECAwHTW9udGFuYTEQMA4GA1UEBwwHQm96ZW1hbjERMA8G
A1UECgwIU2F3dG9vdGgxEzARBgNVBAsMCkNvbnN1bHRpbmcxGDAWBgNVBAMMD3d3
dy53b2xmc3NsLmNvbTEfMB0GCSqGSIb3DQEJARYQaW5mb0B3b2xmc3NsLmNvbTAe
Fw0yNjA2MTUxNjM2NDRaFw0zNjA2MTIxNjM2NDRaMIGQMQswCQYDVQQGEwJVUzEQ
MA4GA1UECAwHTW9udGFuYTEQMA4GA1UEBwwHQm96ZW1hbjEQMA4GA1UECgwHd29s
ZlNTTDEQMA4GA1UECwwHU3VwcG9ydDEYMBYGA1UEAwwPd3d3LndvbGZzc2wuY29t
MR8wHQYJKoZIhvcNAQkBFhBpbmZvQHdvbGZzc2wuY29tMIIBIjANBgkqhkiG9w0B
AQEFAAOCAQ8AMIIBCgKCAQEA12y98tC8T8pbV6rS6dPAL5+3LDkVzyFmS9jDffmU
Rg4Mc+TaZM/SXSVs3JoLOTZ//jEeG3dXZuHtpKyRXJlKuZ53Gqngk/jIAAIg0B81
YWZgSyCcEeQe6O4eOu+ErvS9qJcdcjcOwZWG9Pw11/7xWgVFvxI3yssKSpTPHZth
RXUvGYMjAf/HdNbfUdCYMLxtNhTpFWSi8mhqq0y35X6cZB82lgfp0Cwp/OuyetFc
ZW4mHxEslyKrBBPNm2JSPt7J/wNvl/d+nreZm3gwPBqc5KzjqZR4ML22pJrPV2l/
MLn00A8mwbyNgnXLGq2fwhQQ+0mveLUb9tBygxCwUtXoQwIDAQABo4GmMIGjMAkG
A1UdEwQCMAAwHQYDVR0OBBYEFKUSoXs3qtMXH73dy7zVZBSC5TxDMB8GA1UdIwQY
MBaAFDlsiWeyM+6vZ2F03prCz9pPbc1AMA4GA1UdDwEB/wQEAwIFoDAdBgNVHSUE
FjAUBggrBgEFBQcDAQYIKwYBBQUHAwIwJwYDVR0RBCAwHoIJbG9jYWxob3N0ggtl
eGFtcGxlLmNvbYcEfwAAATANBgkqhkiG9w0BAQsFAAOCAQEAPzFuD9r7bgGAYfDZ
kO2FwhLwUK5fMVmPNjfwr9gCSpA2tcaHls9cuuZ68EYa68IK8lARZ9lKVZgEQZ0U
SIeDvJwbNExV/3XWus5vJSUftyWSKImUI8RiI293KIxZS2l8XZuYNbJNXZ7VvDrr
jM+BEV7jil3FyLgICpl1AeJTDLl3FjdrAd1Xd6Wy9qYDbXOFylSIS65/hnChwTD+
t5qnJ1ET8YTjLWxUrF9q4On8iVlD4RlIcnqUXk9c/6wchpf3Zubh5I2LfUNO7oM0
vHrvwYg2reNIror3qGRjkPFx1AaTyAskqmhfF2omM9NI5o3oTSH919toERGua6eT
ZuLvyQ==
-----END CERTIFICATE-----
-----BEGIN CERTIFICATE-----
MIIE3TCCA8WgAwIBAgIJALio751TFjirMA0GCSqGSIb3DQEBCwUAMIGUMQswCQYD
VQQGEwJVUzEQMA4GA1UECAwHTW9udGFuYTEQMA4GA1UEBwwHQm96ZW1hbjERMA8G
A1UECgwIU2F3dG9vdGgxEzARBgNVBAsMCkNvbnN1bHRpbmcxGDAWBgNVBAMMD3d3
dy53b2xmc3NsLmNvbTEfMB0GCSqGSIb3DQEJARYQaW5mb0B3b2xmc3NsLmNvbTAe
Fw0yNjA2MTUxNjM2NDRaFw0zNjA2MTIxNjM2NDRaMIGUMQswCQYDVQQGEwJVUzEQ
MA4GA1UECAwHTW9udGFuYTEQMA4GA1UEBwwHQm96ZW1hbjERMA8GA1UECgwIU2F3
dG9vdGgxEzARBgNVBAsMCkNvbnN1bHRpbmcxGDAWBgNVBAMMD3d3dy53b2xmc3Ns
LmNvbTEfMB0GCSqGSIb3DQEJARYQaW5mb0B3b2xmc3NsLmNvbTCCASIwDQYJKoZI
hvcNAQEBBQADggEPADCCAQoCggEBAL2vkxFd0Pc4YBF/Sle8tpop9H7IjaocfMOW
k5s4GuUEwF26zWXTecVkC53oNZQfDtiWUZlWdobvY4XqwYSbt4MaAGtsG8N+HM5F
KH6BZM1Mw8yUUMlcVMiPe32/VQp+M0UZg8vjU5xVSgOuQv6Qcww2ieSCvcSur9RW
cM73ASmWAv9oclJXIT1LUja7mYAClTAW6dQvb4lj59vZrX8CLYqP9tMyaThnicYN
TfHi4MnvEJaurrJGPIk5eTeFXw9Sg/XMBRdnYFJkHJmWTW/5F8a5pbxuj6ZlFsDb
DntixcrMSYZWOEu3qv7qRTYJIF7pUnpSoEvNGYzvwDssmLt1u60CAwEAAaOCAS4w
ggEqMA8GA1UdEwEB/wQFMAMBAf8wHQYDVR0OBBYEFDlsiWeyM+6vZ2F03prCz9pP
bc1AMIHJBgNVHSMEgcEwgb6AFDlsiWeyM+6vZ2F03prCz9pPbc1AoYGapIGXMIGU
MQswCQYDVQQGEwJVUzEQMA4GA1UECAwHTW9udGFuYTEQMA4GA1UEBwwHQm96ZW1h
bjERMA8GA1UECgwIU2F3dG9vdGgxEzARBgNVBAsMCkNvbnN1bHRpbmcxGDAWBgNV
BAMMD3d3dy53b2xmc3NsLmNvbTEfMB0GCSqGSIb3DQEJARYQaW5mb0B3b2xmc3Ns
LmNvbYIJALio751TFjirMA4GA1UdDwEB/wQEAwIBBjAcBgNVHREEFTATggtleGFt
cGxlLmNvbYcEfwAAATANBgkqhkiG9w0BAQsFAAOCAQEAS1IveJ023jHZ+RclOvKz
1X35NocNZFk8Ic1dWLE4hjf98vl310X5qtuBDaliOBRs0yYvWe2KQg26VeKTJbO5
wjZhTN7iU/Om1LrUyrFAhmtgVY6JUIaSymJiNqQL4u/KMXbN3Z9NIKZLKJY2+tWx
gL6e34Evz1KYC2P53vrqQb9eQwteVRWlcgerScZU+8dIuqQx/vrhx90Mwuh4EASm
vf6IABha19SkWPjFlwMW3JzRutGUYYezXkUxQAkhcc7plPxTKXh4psahvj5Vb458
zY8/GtjTrCRXNFEqfdqmKLvjdQ2P4+i1Mk7bDsnjYlz9Qy0IfyVzg06m/XajUdkW
LA==
-----END CERTIFICATE-----
