Certificate:
    Data:
        Version: 3 (0x2)
        Serial Number:
            c5:e2:b6:41:60:d5:38:e9
    Signature Algorithm: sha256WithRSAEncryption
        Issuer: C=US, ST=Montana, L=Bozeman, O=Sawtooth, OU=Consulting, CN=www.wolfssl.com/emailAddress=info@wolfssl.com
        Validity
            Not Before: Jun 12 17:30:11 2026 GMT
            Not After : Jun  9 17:30:11 2036 GMT
        Subject: C=US, ST=Montana, L=Bozeman, O=wolfSSL, OU=Support, CN=www.wolfssl.com/emailAddress=info@wolfssl.com
        Subject Public Key Info:
            Public Key Algorithm: rsaEncryption
                RSA Public-Key: (2048 bit)
                Modulus:
                    00:ca:2c:8c:fc:f7:ae:fb:c1:4b:e9:c6:1a:38:52:
                    e7:07:f8:ec:9b:63:6d:87:9e:32:b4:bd:22:cb:9c:
                    ae:a7:64:65:d3:42:c5:6a:49:58:7b:be:5c:a8:d7:
                    0a:3d:93:a8:27:fd:aa:eb:16:46:8e:61:08:ca:45:
                    eb:0b:e7:54:bc:d9:20:69:6b:33:c6:e6:73:f9:40:
                    cc:76:34:3b:7a:c6:5f:26:29:56:a8:82:4d:2d:78:
                    2d:53:07:f0:4e:f5:01:b6:48:54:e4:88:af:2d:75:
                    39:bd:b6:71:60:2b:52:3b:44:d5:dc:8d:77:56:0b:
                    9e:b2:7a:a3:c8:dd:48:50:64:93:5d:ce:c8:d0:08:
                    e4:4a:6b:f8:2b:02:6b:c4:af:11:44:c2:9b:a3:40:
                    2b:2b:a2:f3:74:05:08:7c:0d:74:90:4c:5e:33:f7:
                    1b:32:1f:08:03:aa:9c:93:67:8b:86:1c:54:f1:8a:
                    e9:a7:f7:67:7d:6e:4b:8e:23:01:7d:0e:ba:53:54:
                    00:ce:3b:34:1d:5c:f4:10:bd:8f:c0:3f:85:1c:18:
                    68:80:ee:78:8b:2f:50:47:f6:8a:8d:9d:24:50:ef:
                    c5:fc:f1:f7:1e:be:28:ce:98:8f:61:06:5c:c1:e9:
                    94:f4:0c:f2:10:71:9e:23:6c:5b:8a:7d:cc:03:ba:
                    b9:2f
                Exponent: 65537 (0x10001)
        X509v3 extensions:
            X509v3 Subject Alternative Name: 
                DNS:localhost, DNS:example.com, IP Address:127.0.0.1
            X509v3 Basic Constraints: 
                CA:FALSE
            X509v3 Key Usage: 
                Digital Signature, Key Encipherment
            X509v3 Extended Key Usage: 
                TLS Web Server Authentication
    Signature Algorithm: sha256WithRSAEncryption
         b0:14:09:45:a7:16:c2:fd:01:fa:a5:ca:dd:14:3b:5d:0d:80:
         a2:d2:d6:ef:7c:bd:c1:49:98:05:35:52:6e:67:c7:9f:23:f2:
         ad:b1:4c:0e:50:b2:c7:b0:0e:b6:44:42:5b:fe:21:29:71:6c:
         54:36:a9:a3:31:c6:1f:04:ee:a3:50:b5:fd:33:f9:d2:c4:58:
         11:e1:4d:c3:c3:b3:1f:db:42:95:11:ac:e6:f8:33:d5:46:97:
         2c:47:db:97:53:f1:7b:3f:14:bb:8a:b1:2f:f6:0a:11:82:8c:
         ce:45:3a:25:91:a3:73:3a:95:90:89:d2:b2:cc:91:8c:d8:2a:
         ff:3b:3d:40:ca:6d:d9:5d:05:7e:52:88:8b:b9:2b:a2:52:be:
         42:0a:09:a8:ba:2b:e3:5c:a6:f3:89:4a:50:40:e3:1a:a6:24:
         2f:b6:de:ce:7d:72:6c:fa:d3:2f:52:0f:16:00:9c:95:bf:54:
         20:1e:ab:99:25:66:61:f9:d5:1e:8b:0d:35:57:8b:d4:5e:16:
         c8:3d:f3:7d:a4:2f:2e:55:1d:3f:e8:01:e7:eb:17:37:0c:0d:
         ba:1e:9e:a7:33:9e:a9:90:12:36:4c:62:63:e5:02:f2:aa:33:
         a6:99:bf:89:02:98:7d:cf:ff:cd:0f:f9:54:9a:9d:e7:83:dd:
         0b:8c:11:39
-----BEGIN CERTIFICATE-----
MIIEATCCAumgAwIBAgIJAMXitkFg1TjpMA0GCSqGSIb3DQEBCwUAMIGUMQswCQYD
VQQGEwJVUzEQMA4GA1UECAwHTW9udGFuYTEQMA4GA1UEBwwHQm96ZW1hbjERMA8G
A1UECgwIU2F3dG9vdGgxEzARBgNVBAsMCkNvbnN1bHRpbmcxGDAWBgNVBAMMD3d3
dy53b2xmc3NsLmNvbTEfMB0GCSqGSIb3DQEJARYQaW5mb0B3b2xmc3NsLmNvbTAe
Fw0yNjA2MTIxNzMwMTFaFw0zNjA2MDkxNzMwMTFaMIGQMQswCQYDVQQGEwJVUzEQ
MA4GA1UECAwHTW9udGFuYTEQMA4GA1UEBwwHQm96ZW1hbjEQMA4GA1UECgwHd29s
ZlNTTDEQMA4GA1UECwwHU3VwcG9ydDEYMBYGA1UEAwwPd3d3LndvbGZzc2wuY29t
MR8wHQYJKoZIhvcNAQkBFhBpbmZvQHdvbGZzc2wuY29tMIIBIjANBgkqhkiG9w0B
AQEFAAOCAQ8AMIIBCgKCAQEAyiyM/Peu+8FL6cYaOFLnB/jsm2Nth54ytL0iy5yu
p2Rl00LFaklYe75cqNcKPZOoJ/2q6xZGjmEIykXrC+dUvNkgaWszxuZz+UDMdjQ7
esZfJilWqIJNLXgtUwfwTvUBtkhU5IivLXU5vbZxYCtSO0TV3I13VguesnqjyN1I
UGSTXc7I0AjkSmv4KwJrxK8RRMKbo0ArK6LzdAUIfA10kExeM/cbMh8IA6qck2eL
hhxU8Yrpp/dnfW5LjiMBfQ66U1QAzjs0HVz0EL2PwD+FHBhogO54iy9QR/aKjZ0k
UO/F/PH3Hr4ozpiPYQZcwemU9AzyEHGeI2xbin3MA7q5LwIDAQABo1gwVjAnBgNV
HREEIDAegglsb2NhbGhvc3SCC2V4YW1wbGUuY29thwR/AAABMAkGA1UdEwQCMAAw
CwYDVR0PBAQDAgWgMBMGA1UdJQQMMAoGCCsGAQUFBwMBMA0GCSqGSIb3DQEBCwUA
A4IBAQCwFAlFpxbC/QH6pcrdFDtdDYCi0tbvfL3BSZgFNVJuZ8efI/KtsUwOULLH
sA62REJb/iEpcWxUNqmjMcYfBO6jULX9M/nSxFgR4U3Dw7Mf20KVEazm+DPVRpcs
R9uXU/F7PxS7irEv9goRgozORTolkaNzOpWQidKyzJGM2Cr/Oz1Aym3ZXQV+UoiL
uSuiUr5CCgmouivjXKbziUpQQOMapiQvtt7OfXJs+tMvUg8WAJyVv1QgHquZJWZh
+dUeiw01V4vUXhbIPfN9pC8uVR0/6AHn6xc3DA26Hp6nM56pkBI2TGJj5QLyqjOm
mb+JAph9z//ND/lUmp3ng90LjBE5
-----END CERTIFICATE-----
Certificate:
    Data:
        Version: 1 (0x0)
        Serial Number:
            cb:f5:0d:cd:48:75:df:5e
    Signature Algorithm: sha256WithRSAEncryption
        Issuer: C=US, ST=Montana, L=Bozeman, O=Sawtooth, OU=Consulting, CN=www.wolfssl.com/emailAddress=info@wolfssl.com
        Validity
            Not Before: Jun 12 17:30:11 2026 GMT
            Not After : Jun  9 17:30:11 2036 GMT
        Subject: C=US, ST=Montana, L=Bozeman, O=Sawtooth, OU=Consulting, CN=www.wolfssl.com/emailAddress=info@wolfssl.com
        Subject Public Key Info:
            Public Key Algorithm: rsaEncryption
                RSA Public-Key: (2048 bit)
                Modulus:
                    00:ce:6b:43:26:a4:36:e0:da:0b:ee:4b:84:5f:72:
                    df:fe:22:76:34:44:6c:c9:45:8c:8b:be:8b:f2:af:
                    67:aa:74:25:48:77:e6:44:6c:80:69:9e:ae:d2:ec:
                    5c:c3:e3:f2:51:4a:6c:c9:c2:c9:cb:5e:6d:74:d9:
                    28:08:e9:6d:2e:6e:5b:7b:60:b8:17:cf:90:fc:dc:
                    0b:fc:8f:e8:e9:4a:6f:e8:28:7d:50:d4:f3:a1:ea:
                    29:62:92:15:82:f4:3b:74:88:6d:6f:ce:a5:63:bf:
                    13:fc:34:03:62:ab:c7:24:6e:4e:62:69:88:6a:7f:
                    af:89:78:2c:64:88:0a:6e:59:b7:a1:43:43:ce:f3:
                    db:7a:97:af:f2:15:d1:e2:59:ea:65:8e:94:14:92:
                    16:45:d6:d0:11:c1:5d:b9:04:00:96:6b:f3:cc:e6:
                    bb:ab:37:f7:d8:8d:29:a1:b0:d0:cc:dd:60:50:90:
                    1d:f1:8d:b0:c9:01:6a:49:d2:b0:df:79:37:3c:b0:
                    c5:a0:4b:54:36:a0:b0:aa:c4:a1:09:66:6a:3a:07:
                    a6:42:d4:83:b1:9a:30:e2:8d:fd:41:01:86:2c:6a:
                    bf:41:5d:d6:37:20:34:9d:2b:be:de:0f:d7:d9:4e:
                    fe:e0:97:53:96:02:62:f3:87:55:de:47:bc:83:26:
                    dd:29
                Exponent: 65537 (0x10001)
    Signature Algorithm: sha256WithRSAEncryption
         57:a9:91:4b:3c:fe:1e:b3:58:58:07:82:7f:a8:33:9b:e6:2f:
         f5:e6:de:d0:72:00:1a:04:6f:15:cc:01:8b:10:1f:19:e3:d2:
         8e:d9:27:48:6c:2d:ef:c2:1e:a3:97:fe:3f:bd:cf:97:5a:1b:
         85:19:20:63:e6:2a:85:6d:08:cb:b8:38:c1:38:3f:c9:88:90:
         e2:48:f4:c4:22:d2:3f:78:63:f0:a8:1b:26:08:2b:23:82:2c:
         f0:e9:51:21:65:58:87:ad:73:03:41:95:67:ff:e9:b9:3d:93:
         19:49:ff:39:6a:75:c6:74:3b:e9:51:d0:07:28:14:30:f9:1a:
         b2:23:63:b6:25:64:f0:3a:62:bf:84:40:65:ea:38:6c:f6:86:
         13:fb:94:98:ac:03:37:6e:e5:75:28:65:20:69:b2:f9:9a:2c:
         e6:af:ad:74:78:d8:5f:f4:d2:6c:4d:32:6c:3a:ab:65:6b:d7:
         3c:f9:fb:6a:18:fb:c0:88:e4:40:0b:38:cd:d4:5a:1c:b0:bb:
         18:3a:6a:18:20:0f:27:0e:ea:38:13:50:2c:f4:3a:00:dc:e9:
         1a:d5:52:21:cb:3c:7c:e1:25:e8:d5:e1:b4:2e:79:2c:45:8a:
         cb:63:90:60:57:96:a0:17:6f:d8:cf:05:76:b1:51:12:86:a3:
         58:36:00:5c
-----BEGIN CERTIFICATE-----
MIIDpjCCAo4CCQDL9Q3NSHXfXjANBgkqhkiG9w0BAQsFADCBlDELMAkGA1UEBhMC
VVMxEDAOBgNVBAgMB01vbnRhbmExEDAOBgNVBAcMB0JvemVtYW4xETAPBgNVBAoM
CFNhd3Rvb3RoMRMwEQYDVQQLDApDb25zdWx0aW5nMRgwFgYDVQQDDA93d3cud29s
ZnNzbC5jb20xHzAdBgkqhkiG9w0BCQEWEGluZm9Ad29sZnNzbC5jb20wHhcNMjYw
NjEyMTczMDExWhcNMzYwNjA5MTczMDExWjCBlDELMAkGA1UEBhMCVVMxEDAOBgNV
BAgMB01vbnRhbmExEDAOBgNVBAcMB0JvemVtYW4xETAPBgNVBAoMCFNhd3Rvb3Ro
MRMwEQYDVQQLDApDb25zdWx0aW5nMRgwFgYDVQQDDA93d3cud29sZnNzbC5jb20x
HzAdBgkqhkiG9w0BCQEWEGluZm9Ad29sZnNzbC5jb20wggEiMA0GCSqGSIb3DQEB
AQUAA4IBDwAwggEKAoIBAQDOa0MmpDbg2gvuS4Rfct/+InY0RGzJRYyLvovyr2eq
dCVId+ZEbIBpnq7S7FzD4/JRSmzJwsnLXm102SgI6W0ublt7YLgXz5D83Av8j+jp
Sm/oKH1Q1POh6ilikhWC9Dt0iG1vzqVjvxP8NANiq8ckbk5iaYhqf6+JeCxkiApu
WbehQ0PO89t6l6/yFdHiWepljpQUkhZF1tARwV25BACWa/PM5rurN/fYjSmhsNDM
3WBQkB3xjbDJAWpJ0rDfeTc8sMWgS1Q2oLCqxKEJZmo6B6ZC1IOxmjDijf1BAYYs
ar9BXdY3IDSdK77eD9fZTv7gl1OWAmLzh1XeR7yDJt0pAgMBAAEwDQYJKoZIhvcN
AQELBQADggEBAFepkUs8/h6zWFgHgn+oM5vmL/Xm3tByABoEbxXMAYsQHxnj0o7Z
J0hsLe/CHqOX/j+9z5daG4UZIGPmKoVtCMu4OME4P8mIkOJI9MQi0j94Y/CoGyYI
KyOCLPDpUSFlWIetcwNBlWf/6bk9kxlJ/zlqdcZ0O+lR0AcoFDD5GrIjY7YlZPA6
Yr+EQGXqOGz2hhP7lJisAzdu5XUoZSBpsvmaLOavrXR42F/00mxNMmw6q2Vr1zz5
+2oY+8CI5EALOM3UWhywuxg6ahggDycO6jgTUCz0OgDc6RrVUiHLPHzhJejV4bQu
eSxFistjkGBXlqAXb9jPBXaxURKGo1g2AFw=
-----END CERTIFICATE-----
